target datalayout = "e-m:e-p270:32:32-p271:32:32-p272:64:64-i64:64-i128:128-f80:128-n8:16:32:64-S128"
target triple = "x86_64-unknown-linux-gnu"

%struct.TPCI200State = type { %struct.PCIDevice, %struct.IPackBus, %struct.MemoryRegion, %struct.MemoryRegion, %struct.MemoryRegion, %struct.MemoryRegion, %struct.MemoryRegion, %struct.MemoryRegion, [3 x i8], [4 x i8], i16, i8 }
%struct.PCIDevice = type { %struct.DeviceState, i8, i8, ptr, ptr, ptr, ptr, ptr, i32, %struct.PCIReqIDCache, [64 x i8], [7 x %struct.PCIIORegion], %struct.AddressSpace, %struct.MemoryRegion, %struct.MemoryRegion, ptr, ptr, [3 x ptr], i8, i8, i32, i8, i32, ptr, ptr, ptr, ptr, ptr, ptr, %struct.MemoryRegion, %struct.MemoryRegion, %struct.MemoryRegion, ptr, i8, i32, i8, %struct.PCIExpressDevice, ptr, ptr, i32, i8, %struct.MemoryRegion, i32, ptr, ptr, ptr, ptr, ptr, i32 }
%struct.DeviceState = type { %struct.Object, ptr, ptr, i8, i8, i64, ptr, i32, i8, ptr, %struct.NamedGPIOListHead, %struct.NamedClockListHead, %struct.BusStateHead, i32, i32, i32, %struct.ResettableState, ptr, %struct.MemReentrancyGuard }
%struct.Object = type { ptr, ptr, ptr, i32, ptr }
%struct.NamedGPIOListHead = type { ptr }
%struct.NamedClockListHead = type { ptr }
%struct.BusStateHead = type { ptr }
%struct.ResettableState = type { i32, i8, i8 }
%struct.MemReentrancyGuard = type { i8 }
%struct.PCIReqIDCache = type { ptr, i32 }
%struct.PCIIORegion = type { i64, i64, i8, ptr, ptr }
%struct.AddressSpace = type { %struct.rcu_head, ptr, ptr, ptr, i32, i32, ptr, %union.anon, %union.anon.0 }
%struct.rcu_head = type { ptr, ptr }
%union.anon = type { %struct.QTailQLink }
%struct.QTailQLink = type { ptr, ptr }
%union.anon.0 = type { %struct.QTailQLink }
%struct.PCIExpressDevice = type { i8, i8, i8, i16, %struct.PCIEAERLog, i16, i16, i16, %struct.PCIESriovPF, %struct.PCIESriovVF }
%struct.PCIEAERLog = type { i16, i16, ptr }
%struct.PCIESriovPF = type { i16, [7 x i8], ptr, ptr }
%struct.PCIESriovVF = type { ptr, i16 }
%struct.IPackBus = type { %struct.BusState, i8, i8, ptr }
%struct.BusState = type { %struct.Object, ptr, ptr, ptr, i32, i8, i8, i32, %union.BusChildHead, %struct.BusStateEntry, %struct.ResettableState }
%union.BusChildHead = type { %struct.QTailQLink }
%struct.BusStateEntry = type { ptr, ptr }
%struct.MemoryRegion = type { %struct.Object, i8, i8, i8, i8, i8, i8, i8, i8, i8, i8, ptr, ptr, ptr, ptr, ptr, ptr, i32, i128, i64, ptr, i64, i8, i8, i8, i8, i8, ptr, i64, i32, %union.anon.1, %union.anon.2, %union.anon.3, ptr, i32, ptr, ptr, i8 }
%union.anon.1 = type { %struct.QTailQLink }
%union.anon.2 = type { %struct.QTailQLink }
%union.anon.3 = type { %struct.QTailQLink }

; Function Attrs: nounwind sspstrong uwtable
define internal i64 @adjust_value(i1 noundef zeroext %big_endian, ptr noundef %val, i32 noundef %size) #0 {
entry:
  %big_endian.addr = alloca i8, align 1
  %val.addr = alloca ptr, align 8
  %size.addr = alloca i32, align 4
  %frombool = zext i1 %big_endian to i8
  store i8 %frombool, ptr %big_endian.addr, align 1
  store ptr %val, ptr %val.addr, align 8
  store i32 %size, ptr %size.addr, align 4
  %0 = load i8, ptr %big_endian.addr, align 1
  %tobool = trunc i8 %0 to i1
  br i1 %tobool, label %land.lhs.true, label %if.end

land.lhs.true:                                    ; preds = %entry
  %1 = load i32, ptr %size.addr, align 4
  %cmp = icmp eq i32 %1, 2
  br i1 %cmp, label %if.then, label %if.end

if.then:                                          ; preds = %land.lhs.true
  %2 = load ptr, ptr %val.addr, align 8
  %3 = load i64, ptr %2, align 8
  %conv = trunc i64 %3 to i16
  %4 = call i16 @llvm.bswap.i16(i16 %conv)
  %conv1 = zext i16 %4 to i64
  %5 = load ptr, ptr %val.addr, align 8
  store i64 %conv1, ptr %5, align 8
  br label %if.end

if.end:                                           ; preds = %if.then, %land.lhs.true, %entry
  %6 = load ptr, ptr %val.addr, align 8
  %7 = load i64, ptr %6, align 8
  ret i64 %7
}

; Function Attrs: nounwind sspstrong uwtable
define internal i64 @tpci200_read_las0(ptr noundef %opaque, i64 noundef %addr, i32 noundef %size) #0 {
entry:
  %opaque.addr = alloca ptr, align 8
  %addr.addr = alloca i64, align 8
  %size.addr = alloca i32, align 4
  %s = alloca ptr, align 8
  %ret = alloca i64, align 8
  %ip_n = alloca i32, align 4
  store ptr %opaque, ptr %opaque.addr, align 8
  store i64 %addr, ptr %addr.addr, align 8
  store i32 %size, ptr %size.addr, align 4
  %0 = load ptr, ptr %opaque.addr, align 8
  store ptr %0, ptr %s, align 8
  store i64 0, ptr %ret, align 8
  %1 = load i64, ptr %addr.addr, align 8
  switch i64 %1, label %sw.default [
    i64 0, label %sw.bb
    i64 2, label %sw.bb1
    i64 4, label %sw.bb1
    i64 6, label %sw.bb1
    i64 8, label %sw.bb1
    i64 10, label %sw.bb5
    i64 12, label %sw.bb8
  ]

sw.bb:                                            ; preds = %entry
  br label %do.body

do.body:                                          ; preds = %sw.bb
  br label %do.end

do.end:                                           ; preds = %do.body
  br label %sw.epilog

sw.bb1:                                           ; preds = %entry, %entry, %entry, %entry
  %2 = load i64, ptr %addr.addr, align 8
  %div = udiv i64 %2, 2
  %sub = sub i64 %div, 1
  %conv = trunc i64 %sub to i32
  store i32 %conv, ptr %ip_n, align 4
  %3 = load ptr, ptr %s, align 8
  %ctrl = getelementptr inbounds %struct.TPCI200State, ptr %3, i32 0, i32 9
  %4 = load i32, ptr %ip_n, align 4
  %idxprom = zext i32 %4 to i64
  %arrayidx = getelementptr [4 x i8], ptr %ctrl, i64 0, i64 %idxprom
  %5 = load i8, ptr %arrayidx, align 1
  %conv2 = zext i8 %5 to i64
  store i64 %conv2, ptr %ret, align 8
  br label %do.body3

do.body3:                                         ; preds = %sw.bb1
  br label %do.end4

do.end4:                                          ; preds = %do.body3
  br label %sw.epilog

sw.bb5:                                           ; preds = %entry
  br label %do.body6

do.body6:                                         ; preds = %sw.bb5
  br label %do.end7

do.end7:                                          ; preds = %do.body6
  br label %sw.epilog

sw.bb8:                                           ; preds = %entry
  %6 = load ptr, ptr %s, align 8
  %status = getelementptr inbounds %struct.TPCI200State, ptr %6, i32 0, i32 10
  %7 = load i16, ptr %status, align 8
  %conv9 = zext i16 %7 to i64
  store i64 %conv9, ptr %ret, align 8
  br label %do.body10

do.body10:                                        ; preds = %sw.bb8
  br label %do.end11

do.end11:                                         ; preds = %do.body10
  br label %sw.epilog

sw.default:                                       ; preds = %entry
  br label %do.body12

do.body12:                                        ; preds = %sw.default
  br label %do.end13

do.end13:                                         ; preds = %do.body12
  br label %sw.epilog

sw.epilog:                                        ; preds = %do.end13, %do.end11, %do.end7, %do.end4, %do.end
  %8 = load ptr, ptr %s, align 8
  %big_endian = getelementptr inbounds %struct.TPCI200State, ptr %8, i32 0, i32 8
  %arrayidx14 = getelementptr [3 x i8], ptr %big_endian, i64 0, i64 0
  %9 = load i8, ptr %arrayidx14, align 16
  %tobool = trunc i8 %9 to i1
  %10 = load i32, ptr %size.addr, align 4
  %call = call i64 @adjust_value(i1 noundef zeroext %tobool, ptr noundef %ret, i32 noundef %10)
  ret i64 %call
}