; Function Attrs: mustprogress nofree norecurse nosync nounwind sspstrong willreturn memory(argmem: read) uwtable
define internal range(i64 0, 65536) i64 @tpci200_read_las0(ptr noundef readonly captures(none) %opaque, i64 noundef %addr, i32 noundef %size) #2 {
entry:
  switch i64 %addr, label %sw.epilog [
    i64 12, label %sw.bb8
    i64 2, label %sw.bb1
    i64 4, label %sw.bb1
    i64 6, label %sw.bb1
    i64 8, label %sw.bb1
  ]

sw.bb1:                                           ; preds = %entry, %entry, %entry, %entry
  %div4 = lshr i64 %addr, 1
  %conv = add nuw nsw i64 %div4, 4294967295
  %ctrl = getelementptr inbounds nuw i8, ptr %opaque, i64 4387
  %idxprom = and i64 %conv, 4294967295
  %arrayidx = getelementptr [4 x i8], ptr %ctrl, i64 0, i64 %idxprom
  %0 = load i8, ptr %arrayidx, align 1
  %conv2 = zext i8 %0 to i64
  br label %sw.epilog

sw.bb8:                                           ; preds = %entry
  %status = getelementptr inbounds nuw i8, ptr %opaque, i64 4392
  %1 = load i16, ptr %status, align 8
  %conv9 = zext i16 %1 to i64
  br label %sw.epilog

sw.epilog:                                        ; preds = %entry, %sw.bb8, %sw.bb1
  %ret.0 = phi i64 [ 0, %entry ], [ %conv2, %sw.bb1 ], [ %conv9, %sw.bb8 ]
  %big_endian = getelementptr inbounds nuw i8, ptr %opaque, i64 4384
  %2 = load i8, ptr %big_endian, align 16
  %tobool = trunc i8 %2 to i1
  %cmp.i = icmp eq i32 %size, 2
  %or.cond.i = and i1 %cmp.i, %tobool
  %conv.i = trunc nuw i64 %ret.0 to i16
  %3 = tail call i16 @llvm.bswap.i16(i16 %conv.i)
  %conv1.i = zext i16 %3 to i64
  %4 = select i1 %or.cond.i, i64 %conv1.i, i64 %ret.0
  ret i64 %4
}